target datalayout = "e-m:e-p270:32:32-p271:32:32-p272:64:64-i64:64-i128:128-f80:128-n8:16:32:64-S128"
target triple = "x86_64-unknown-linux-gnu"

%"class.proxygen::ResponseHandler" = type { ptr, ptr, ptr }

; Function Attrs: mustprogress nounwind uwtable
define void @_ZN8proxygen21RequestHandlerAdaptor17detachTransactionEv(ptr noundef nonnull align 8 dereferenceable(36) %this) unnamed_addr #5 align 2 {
entry:
  %this.addr = alloca ptr, align 8
  %upstream = alloca ptr, align 8
  store ptr %this, ptr %this.addr, align 8
  %this1 = load ptr, ptr %this.addr, align 8
  %add.ptr = getelementptr inbounds i8, ptr %this1, i64 8
  %upstream_ = getelementptr inbounds %"class.proxygen::ResponseHandler", ptr %add.ptr, i32 0, i32 1
  %0 = load ptr, ptr %upstream_, align 8
  %tobool = icmp ne ptr %0, null
  br i1 %tobool, label %if.then, label %if.end

if.then:                                          ; preds = %entry
  %add.ptr2 = getelementptr inbounds i8, ptr %this1, i64 8
  %upstream_3 = getelementptr inbounds %"class.proxygen::ResponseHandler", ptr %add.ptr2, i32 0, i32 1
  %1 = load ptr, ptr %upstream_3, align 8
  store ptr %1, ptr %upstream, align 8
  %add.ptr4 = getelementptr inbounds i8, ptr %this1, i64 8
  %upstream_5 = getelementptr inbounds %"class.proxygen::ResponseHandler", ptr %add.ptr4, i32 0, i32 1
  store ptr null, ptr %upstream_5, align 8
  %2 = load ptr, ptr %upstream, align 8
  %vtable = load ptr, ptr %2, align 8
  %vfn = getelementptr inbounds ptr, ptr %vtable, i64 5
  %3 = load ptr, ptr %vfn, align 8
  call void %3(ptr noundef nonnull align 8 dereferenceable(16) %2) #3
  br label %if.end

if.end:                                           ; preds = %if.then, %entry
  %isnull = icmp eq ptr %this1, null
  br i1 %isnull, label %delete.end, label %delete.notnull

delete.notnull:                                   ; preds = %if.end
  %vtable6 = load ptr, ptr %this1, align 8
  %vfn7 = getelementptr inbounds ptr, ptr %vtable6, i64 1
  %4 = load ptr, ptr %vfn7, align 8
  call void %4(ptr noundef nonnull align 8 dereferenceable(36) %this1) #3
  br label %delete.end

delete.end:                                       ; preds = %delete.notnull, %if.end
  ret void
}