; Function Attrs: mustprogress nounwind uwtable
define void @_ZN8proxygen21RequestHandlerAdaptor17detachTransactionEv(ptr noundef nonnull align 8 dereferenceable(36) %this) unnamed_addr #4 align 2 {
entry:
  %upstream_ = getelementptr inbounds i8, ptr %this, i64 16
  %0 = load ptr, ptr %upstream_, align 8
  %tobool.not = icmp eq ptr %0, null
  br i1 %tobool.not, label %delete.notnull, label %if.then

if.then:                                          ; preds = %entry
  store ptr null, ptr %upstream_, align 8
  %vtable = load ptr, ptr %0, align 8
  %vfn = getelementptr inbounds i8, ptr %vtable, i64 40
  %1 = load ptr, ptr %vfn, align 8
  tail call void %1(ptr noundef nonnull align 8 dereferenceable(16) %0) #19
  br label %delete.notnull

delete.notnull:                                   ; preds = %entry, %if.then
  %vtable6 = load ptr, ptr %this, align 8
  %vfn7 = getelementptr inbounds i8, ptr %vtable6, i64 8
  %2 = load ptr, ptr %vfn7, align 8
  tail call void %2(ptr noundef nonnull align 8 dereferenceable(36) %this) #19
  ret void
}